target datalayout = "e-m:e-p270:32:32-p271:32:32-p272:64:64-i64:64-i128:128-f80:128-n8:16:32:64-S128"
target triple = "x86_64-pc-linux-gnu"

%struct.b2Vec2 = type { float, float }
%struct.b2Transform = type { %struct.b2Vec2, %struct.b2Rot }
%struct.b2Rot = type { float, float }
%struct.b2Polygon = type { [8 x %struct.b2Vec2], [8 x %struct.b2Vec2], %struct.b2Vec2, float, i32 }

; Function Attrs: inlinehint nounwind uwtable
define internal <2 x float> @b2RotateVector(<2 x float> %0, <2 x float> %1) #6 {
  %3 = alloca %struct.b2Vec2, align 4
  %4 = alloca %struct.b2Rot, align 4
  %5 = alloca %struct.b2Vec2, align 4
  store <2 x float> %0, ptr %4, align 4
  store <2 x float> %1, ptr %5, align 4
  %6 = getelementptr inbounds nuw %struct.b2Vec2, ptr %3, i32 0, i32 0
  %7 = getelementptr inbounds nuw %struct.b2Rot, ptr %4, i32 0, i32 0
  %8 = load float, ptr %7, align 4, !tbaa !43
  %9 = getelementptr inbounds nuw %struct.b2Vec2, ptr %5, i32 0, i32 0
  %10 = load float, ptr %9, align 4, !tbaa !30
  %11 = fmul float %8, %10
  %12 = getelementptr inbounds nuw %struct.b2Rot, ptr %4, i32 0, i32 1
  %13 = load float, ptr %12, align 4, !tbaa !44
  %14 = getelementptr inbounds nuw %struct.b2Vec2, ptr %5, i32 0, i32 1
  %15 = load float, ptr %14, align 4, !tbaa !31
  %16 = fmul float %13, %15
  %17 = fsub float %11, %16
  store float %17, ptr %6, align 4, !tbaa !30
  %18 = getelementptr inbounds nuw %struct.b2Vec2, ptr %3, i32 0, i32 1
  %19 = getelementptr inbounds nuw %struct.b2Rot, ptr %4, i32 0, i32 1
  %20 = load float, ptr %19, align 4, !tbaa !44
  %21 = getelementptr inbounds nuw %struct.b2Vec2, ptr %5, i32 0, i32 0
  %22 = load float, ptr %21, align 4, !tbaa !30
  %23 = fmul float %20, %22
  %24 = getelementptr inbounds nuw %struct.b2Rot, ptr %4, i32 0, i32 0
  %25 = load float, ptr %24, align 4, !tbaa !43
  %26 = getelementptr inbounds nuw %struct.b2Vec2, ptr %5, i32 0, i32 1
  %27 = load float, ptr %26, align 4, !tbaa !31
  %28 = fmul float %25, %27
  %29 = fadd float %23, %28
  store float %29, ptr %18, align 4, !tbaa !31
  %30 = load <2 x float>, ptr %3, align 4
  ret <2 x float> %30
}

; Function Attrs: inlinehint nounwind uwtable
define internal <2 x float> @b2TransformPoint(<2 x float> %0, <2 x float> %1, <2 x float> %2) #6 {
  %4 = alloca %struct.b2Vec2, align 4
  %5 = alloca %struct.b2Transform, align 4
  %6 = alloca %struct.b2Vec2, align 4
  %7 = alloca float, align 4
  %8 = alloca float, align 4
  %9 = getelementptr inbounds nuw { <2 x float>, <2 x float> }, ptr %5, i32 0, i32 0
  store <2 x float> %0, ptr %9, align 4
  %10 = getelementptr inbounds nuw { <2 x float>, <2 x float> }, ptr %5, i32 0, i32 1
  store <2 x float> %1, ptr %10, align 4
  store <2 x float> %2, ptr %6, align 4
  call void @llvm.lifetime.start.p0(i64 4, ptr %7) #9
  %11 = getelementptr inbounds nuw %struct.b2Transform, ptr %5, i32 0, i32 1
  %12 = getelementptr inbounds nuw %struct.b2Rot, ptr %11, i32 0, i32 0
  %13 = load float, ptr %12, align 4, !tbaa !37
  %14 = getelementptr inbounds nuw %struct.b2Vec2, ptr %6, i32 0, i32 0
  %15 = load float, ptr %14, align 4, !tbaa !30
  %16 = fmul float %13, %15
  %17 = getelementptr inbounds nuw %struct.b2Transform, ptr %5, i32 0, i32 1
  %18 = getelementptr inbounds nuw %struct.b2Rot, ptr %17, i32 0, i32 1
  %19 = load float, ptr %18, align 4, !tbaa !40
  %20 = getelementptr inbounds nuw %struct.b2Vec2, ptr %6, i32 0, i32 1
  %21 = load float, ptr %20, align 4, !tbaa !31
  %22 = fmul float %19, %21
  %23 = fsub float %16, %22
  %24 = getelementptr inbounds nuw %struct.b2Transform, ptr %5, i32 0, i32 0
  %25 = getelementptr inbounds nuw %struct.b2Vec2, ptr %24, i32 0, i32 0
  %26 = load float, ptr %25, align 4, !tbaa !41
  %27 = fadd float %23, %26
  store float %27, ptr %7, align 4, !tbaa !12
  call void @llvm.lifetime.start.p0(i64 4, ptr %8) #9
  %28 = getelementptr inbounds nuw %struct.b2Transform, ptr %5, i32 0, i32 1
  %29 = getelementptr inbounds nuw %struct.b2Rot, ptr %28, i32 0, i32 1
  %30 = load float, ptr %29, align 4, !tbaa !40
  %31 = getelementptr inbounds nuw %struct.b2Vec2, ptr %6, i32 0, i32 0
  %32 = load float, ptr %31, align 4, !tbaa !30
  %33 = fmul float %30, %32
  %34 = getelementptr inbounds nuw %struct.b2Transform, ptr %5, i32 0, i32 1
  %35 = getelementptr inbounds nuw %struct.b2Rot, ptr %34, i32 0, i32 0
  %36 = load float, ptr %35, align 4, !tbaa !37
  %37 = getelementptr inbounds nuw %struct.b2Vec2, ptr %6, i32 0, i32 1
  %38 = load float, ptr %37, align 4, !tbaa !31
  %39 = fmul float %36, %38
  %40 = fadd float %33, %39
  %41 = getelementptr inbounds nuw %struct.b2Transform, ptr %5, i32 0, i32 0
  %42 = getelementptr inbounds nuw %struct.b2Vec2, ptr %41, i32 0, i32 1
  %43 = load float, ptr %42, align 4, !tbaa !42
  %44 = fadd float %40, %43
  store float %44, ptr %8, align 4, !tbaa !12
  %45 = getelementptr inbounds nuw %struct.b2Vec2, ptr %4, i32 0, i32 0
  %46 = load float, ptr %7, align 4, !tbaa !12
  store float %46, ptr %45, align 4, !tbaa !30
  %47 = getelementptr inbounds nuw %struct.b2Vec2, ptr %4, i32 0, i32 1
  %48 = load float, ptr %8, align 4, !tbaa !12
  store float %48, ptr %47, align 4, !tbaa !31
  call void @llvm.lifetime.end.p0(i64 4, ptr %8) #9
  call void @llvm.lifetime.end.p0(i64 4, ptr %7) #9
  %49 = load <2 x float>, ptr %4, align 4
  ret <2 x float> %49
}

; Function Attrs: nounwind uwtable
define void @b2MakeOffsetBox(ptr dead_on_unwind noalias writable sret(%struct.b2Polygon) align 4 %0, float noundef %1, float noundef %2, <2 x float> %3, <2 x float> %4) #0 {
  %6 = alloca %struct.b2Vec2, align 4
  %7 = alloca %struct.b2Rot, align 4
  %8 = alloca float, align 4
  %9 = alloca float, align 4
  %10 = alloca %struct.b2Transform, align 4
  %11 = alloca %struct.b2Vec2, align 4
  %12 = alloca %struct.b2Vec2, align 4
  %13 = alloca %struct.b2Vec2, align 4
  %14 = alloca %struct.b2Vec2, align 4
  %15 = alloca %struct.b2Vec2, align 4
  %16 = alloca %struct.b2Vec2, align 4
  %17 = alloca %struct.b2Vec2, align 4
  %18 = alloca %struct.b2Vec2, align 4
  %19 = alloca %struct.b2Vec2, align 4
  %20 = alloca %struct.b2Vec2, align 4
  %21 = alloca %struct.b2Vec2, align 4
  %22 = alloca %struct.b2Vec2, align 4
  %23 = alloca %struct.b2Vec2, align 4
  %24 = alloca %struct.b2Vec2, align 4
  %25 = alloca %struct.b2Vec2, align 4
  %26 = alloca %struct.b2Vec2, align 4
  store <2 x float> %3, ptr %6, align 4
  store <2 x float> %4, ptr %7, align 4
  store float %1, ptr %8, align 4, !tbaa !12
  store float %2, ptr %9, align 4, !tbaa !12
  call void @llvm.lifetime.start.p0(i64 16, ptr %10) #9
  %27 = getelementptr inbounds nuw %struct.b2Transform, ptr %10, i32 0, i32 0
  call void @llvm.memcpy.p0.p0.i64(ptr align 4 %27, ptr align 4 %6, i64 8, i1 false), !tbaa.struct !26
  %28 = getelementptr inbounds nuw %struct.b2Transform, ptr %10, i32 0, i32 1
  call void @llvm.memcpy.p0.p0.i64(ptr align 4 %28, ptr align 4 %7, i64 8, i1 false), !tbaa.struct !26
  call void @llvm.memset.p0.i64(ptr align 4 %0, i8 0, i64 144, i1 false)
  %29 = getelementptr inbounds nuw %struct.b2Polygon, ptr %0, i32 0, i32 4
  store i32 4, ptr %29, align 4, !tbaa !22
  %30 = getelementptr inbounds nuw %struct.b2Polygon, ptr %0, i32 0, i32 0
  %31 = getelementptr inbounds [8 x %struct.b2Vec2], ptr %30, i64 0, i64 0
  call void @llvm.lifetime.start.p0(i64 8, ptr %11) #9
  %32 = getelementptr inbounds nuw %struct.b2Vec2, ptr %12, i32 0, i32 0
  %33 = load float, ptr %8, align 4, !tbaa !12
  %34 = fneg float %33
  store float %34, ptr %32, align 4, !tbaa !30
  %35 = getelementptr inbounds nuw %struct.b2Vec2, ptr %12, i32 0, i32 1
  %36 = load float, ptr %9, align 4, !tbaa !12
  %37 = fneg float %36
  store float %37, ptr %35, align 4, !tbaa !31
  %38 = getelementptr inbounds nuw { <2 x float>, <2 x float> }, ptr %10, i32 0, i32 0
  %39 = load <2 x float>, ptr %38, align 4
  %40 = getelementptr inbounds nuw { <2 x float>, <2 x float> }, ptr %10, i32 0, i32 1
  %41 = load <2 x float>, ptr %40, align 4
  %42 = load <2 x float>, ptr %12, align 4
  %43 = call <2 x float> @b2TransformPoint(<2 x float> %39, <2 x float> %41, <2 x float> %42)
  store <2 x float> %43, ptr %11, align 4
  call void @llvm.memcpy.p0.p0.i64(ptr align 4 %31, ptr align 4 %11, i64 8, i1 false), !tbaa.struct !26
  call void @llvm.lifetime.end.p0(i64 8, ptr %11) #9
  %44 = getelementptr inbounds nuw %struct.b2Polygon, ptr %0, i32 0, i32 0
  %45 = getelementptr inbounds [8 x %struct.b2Vec2], ptr %44, i64 0, i64 1
  call void @llvm.lifetime.start.p0(i64 8, ptr %13) #9
  %46 = getelementptr inbounds nuw %struct.b2Vec2, ptr %14, i32 0, i32 0
  %47 = load float, ptr %8, align 4, !tbaa !12
  store float %47, ptr %46, align 4, !tbaa !30
  %48 = getelementptr inbounds nuw %struct.b2Vec2, ptr %14, i32 0, i32 1
  %49 = load float, ptr %9, align 4, !tbaa !12
  %50 = fneg float %49
  store float %50, ptr %48, align 4, !tbaa !31
  %51 = getelementptr inbounds nuw { <2 x float>, <2 x float> }, ptr %10, i32 0, i32 0
  %52 = load <2 x float>, ptr %51, align 4
  %53 = getelementptr inbounds nuw { <2 x float>, <2 x float> }, ptr %10, i32 0, i32 1
  %54 = load <2 x float>, ptr %53, align 4
  %55 = load <2 x float>, ptr %14, align 4
  %56 = call <2 x float> @b2TransformPoint(<2 x float> %52, <2 x float> %54, <2 x float> %55)
  store <2 x float> %56, ptr %13, align 4
  call void @llvm.memcpy.p0.p0.i64(ptr align 4 %45, ptr align 4 %13, i64 8, i1 false), !tbaa.struct !26
  call void @llvm.lifetime.end.p0(i64 8, ptr %13) #9
  %57 = getelementptr inbounds nuw %struct.b2Polygon, ptr %0, i32 0, i32 0
  %58 = getelementptr inbounds [8 x %struct.b2Vec2], ptr %57, i64 0, i64 2
  call void @llvm.lifetime.start.p0(i64 8, ptr %15) #9
  %59 = getelementptr inbounds nuw %struct.b2Vec2, ptr %16, i32 0, i32 0
  %60 = load float, ptr %8, align 4, !tbaa !12
  store float %60, ptr %59, align 4, !tbaa !30
  %61 = getelementptr inbounds nuw %struct.b2Vec2, ptr %16, i32 0, i32 1
  %62 = load float, ptr %9, align 4, !tbaa !12
  store float %62, ptr %61, align 4, !tbaa !31
  %63 = getelementptr inbounds nuw { <2 x float>, <2 x float> }, ptr %10, i32 0, i32 0
  %64 = load <2 x float>, ptr %63, align 4
  %65 = getelementptr inbounds nuw { <2 x float>, <2 x float> }, ptr %10, i32 0, i32 1
  %66 = load <2 x float>, ptr %65, align 4
  %67 = load <2 x float>, ptr %16, align 4
  %68 = call <2 x float> @b2TransformPoint(<2 x float> %64, <2 x float> %66, <2 x float> %67)
  store <2 x float> %68, ptr %15, align 4
  call void @llvm.memcpy.p0.p0.i64(ptr align 4 %58, ptr align 4 %15, i64 8, i1 false), !tbaa.struct !26
  call void @llvm.lifetime.end.p0(i64 8, ptr %15) #9
  %69 = getelementptr inbounds nuw %struct.b2Polygon, ptr %0, i32 0, i32 0
  %70 = getelementptr inbounds [8 x %struct.b2Vec2], ptr %69, i64 0, i64 3
  call void @llvm.lifetime.start.p0(i64 8, ptr %17) #9
  %71 = getelementptr inbounds nuw %struct.b2Vec2, ptr %18, i32 0, i32 0
  %72 = load float, ptr %8, align 4, !tbaa !12
  %73 = fneg float %72
  store float %73, ptr %71, align 4, !tbaa !30
  %74 = getelementptr inbounds nuw %struct.b2Vec2, ptr %18, i32 0, i32 1
  %75 = load float, ptr %9, align 4, !tbaa !12
  store float %75, ptr %74, align 4, !tbaa !31
  %76 = getelementptr inbounds nuw { <2 x float>, <2 x float> }, ptr %10, i32 0, i32 0
  %77 = load <2 x float>, ptr %76, align 4
  %78 = getelementptr inbounds nuw { <2 x float>, <2 x float> }, ptr %10, i32 0, i32 1
  %79 = load <2 x float>, ptr %78, align 4
  %80 = load <2 x float>, ptr %18, align 4
  %81 = call <2 x float> @b2TransformPoint(<2 x float> %77, <2 x float> %79, <2 x float> %80)
  store <2 x float> %81, ptr %17, align 4
  call void @llvm.memcpy.p0.p0.i64(ptr align 4 %70, ptr align 4 %17, i64 8, i1 false), !tbaa.struct !26
  call void @llvm.lifetime.end.p0(i64 8, ptr %17) #9
  %82 = getelementptr inbounds nuw %struct.b2Polygon, ptr %0, i32 0, i32 1
  %83 = getelementptr inbounds [8 x %struct.b2Vec2], ptr %82, i64 0, i64 0
  call void @llvm.lifetime.start.p0(i64 8, ptr %19) #9
  %84 = getelementptr inbounds nuw %struct.b2Transform, ptr %10, i32 0, i32 1
  %85 = getelementptr inbounds nuw %struct.b2Vec2, ptr %20, i32 0, i32 0
  store float 0.000000e+00, ptr %85, align 4, !tbaa !30
  %86 = getelementptr inbounds nuw %struct.b2Vec2, ptr %20, i32 0, i32 1
  store float -1.000000e+00, ptr %86, align 4, !tbaa !31
  %87 = load <2 x float>, ptr %84, align 4
  %88 = load <2 x float>, ptr %20, align 4
  %89 = call <2 x float> @b2RotateVector(<2 x float> %87, <2 x float> %88)
  store <2 x float> %89, ptr %19, align 4
  call void @llvm.memcpy.p0.p0.i64(ptr align 4 %83, ptr align 4 %19, i64 8, i1 false), !tbaa.struct !26
  call void @llvm.lifetime.end.p0(i64 8, ptr %19) #9
  %90 = getelementptr inbounds nuw %struct.b2Polygon, ptr %0, i32 0, i32 1
  %91 = getelementptr inbounds [8 x %struct.b2Vec2], ptr %90, i64 0, i64 1
  call void @llvm.lifetime.start.p0(i64 8, ptr %21) #9
  %92 = getelementptr inbounds nuw %struct.b2Transform, ptr %10, i32 0, i32 1
  %93 = getelementptr inbounds nuw %struct.b2Vec2, ptr %22, i32 0, i32 0
  store float 1.000000e+00, ptr %93, align 4, !tbaa !30
  %94 = getelementptr inbounds nuw %struct.b2Vec2, ptr %22, i32 0, i32 1
  store float 0.000000e+00, ptr %94, align 4, !tbaa !31
  %95 = load <2 x float>, ptr %92, align 4
  %96 = load <2 x float>, ptr %22, align 4
  %97 = call <2 x float> @b2RotateVector(<2 x float> %95, <2 x float> %96)
  store <2 x float> %97, ptr %21, align 4
  call void @llvm.memcpy.p0.p0.i64(ptr align 4 %91, ptr align 4 %21, i64 8, i1 false), !tbaa.struct !26
  call void @llvm.lifetime.end.p0(i64 8, ptr %21) #9
  %98 = getelementptr inbounds nuw %struct.b2Polygon, ptr %0, i32 0, i32 1
  %99 = getelementptr inbounds [8 x %struct.b2Vec2], ptr %98, i64 0, i64 2
  call void @llvm.lifetime.start.p0(i64 8, ptr %23) #9
  %100 = getelementptr inbounds nuw %struct.b2Transform, ptr %10, i32 0, i32 1
  %101 = getelementptr inbounds nuw %struct.b2Vec2, ptr %24, i32 0, i32 0
  store float 0.000000e+00, ptr %101, align 4, !tbaa !30
  %102 = getelementptr inbounds nuw %struct.b2Vec2, ptr %24, i32 0, i32 1
  store float 1.000000e+00, ptr %102, align 4, !tbaa !31
  %103 = load <2 x float>, ptr %100, align 4
  %104 = load <2 x float>, ptr %24, align 4
  %105 = call <2 x float> @b2RotateVector(<2 x float> %103, <2 x float> %104)
  store <2 x float> %105, ptr %23, align 4
  call void @llvm.memcpy.p0.p0.i64(ptr align 4 %99, ptr align 4 %23, i64 8, i1 false), !tbaa.struct !26
  call void @llvm.lifetime.end.p0(i64 8, ptr %23) #9
  %106 = getelementptr inbounds nuw %struct.b2Polygon, ptr %0, i32 0, i32 1
  %107 = getelementptr inbounds [8 x %struct.b2Vec2], ptr %106, i64 0, i64 3
  call void @llvm.lifetime.start.p0(i64 8, ptr %25) #9
  %108 = getelementptr inbounds nuw %struct.b2Transform, ptr %10, i32 0, i32 1
  %109 = getelementptr inbounds nuw %struct.b2Vec2, ptr %26, i32 0, i32 0
  store float -1.000000e+00, ptr %109, align 4, !tbaa !30
  %110 = getelementptr inbounds nuw %struct.b2Vec2, ptr %26, i32 0, i32 1
  store float 0.000000e+00, ptr %110, align 4, !tbaa !31
  %111 = load <2 x float>, ptr %108, align 4
  %112 = load <2 x float>, ptr %26, align 4
  %113 = call <2 x float> @b2RotateVector(<2 x float> %111, <2 x float> %112)
  store <2 x float> %113, ptr %25, align 4
  call void @llvm.memcpy.p0.p0.i64(ptr align 4 %107, ptr align 4 %25, i64 8, i1 false), !tbaa.struct !26
  call void @llvm.lifetime.end.p0(i64 8, ptr %25) #9
  %114 = getelementptr inbounds nuw %struct.b2Polygon, ptr %0, i32 0, i32 3
  store float 0.000000e+00, ptr %114, align 4, !tbaa !24
  %115 = getelementptr inbounds nuw %struct.b2Polygon, ptr %0, i32 0, i32 2
  %116 = getelementptr inbounds nuw %struct.b2Transform, ptr %10, i32 0, i32 0
  call void @llvm.memcpy.p0.p0.i64(ptr align 4 %115, ptr align 4 %116, i64 8, i1 false), !tbaa.struct !26
  call void @llvm.lifetime.end.p0(i64 16, ptr %10) #9
  ret void
}