; Function Attrs: mustprogress nofree norecurse nosync nounwind willreturn memory(argmem: write) uwtable
define void @b2MakeOffsetBox(ptr dead_on_unwind noalias writable writeonly sret(%struct.b2Polygon) align 4 captures(none) initializes((0, 144)) %0, float noundef %1, float noundef %2, <2 x float> %3, <2 x float> %4) local_unnamed_addr #7 {
  %6 = getelementptr inbounds nuw i8, ptr %0, i64 32
  tail call void @llvm.memset.p0.i64(ptr noundef nonnull align 4 dereferenceable(144) %6, i8 0, i64 96, i1 false)
  %7 = getelementptr inbounds nuw i8, ptr %0, i64 140
  store i32 4, ptr %7, align 4, !tbaa !18
  %8 = fneg float %1
  %9 = fneg float %2
  %.sroa.3.8.vec.extract.i = extractelement <2 x float> %4, i64 0
  %10 = fmul float %.sroa.3.8.vec.extract.i, %8
  %.sroa.3.12.vec.extract.i = extractelement <2 x float> %4, i64 1
  %11 = fmul float %.sroa.3.12.vec.extract.i, %9
  %12 = fsub float %10, %11
  %.sroa.06.0.vec.extract.i = extractelement <2 x float> %3, i64 0
  %13 = fadd float %.sroa.06.0.vec.extract.i, %12
  %14 = fmul float %.sroa.3.12.vec.extract.i, %8
  %15 = fmul float %.sroa.3.8.vec.extract.i, %9
  %16 = fadd float %14, %15
  %.sroa.06.4.vec.extract.i = extractelement <2 x float> %3, i64 1
  %17 = fadd float %.sroa.06.4.vec.extract.i, %16
  %.sroa.011.0.vec.insert.i = insertelement <2 x float> poison, float %13, i64 0
  %.sroa.011.4.vec.insert.i = insertelement <2 x float> %.sroa.011.0.vec.insert.i, float %17, i64 1
  store <2 x float> %.sroa.011.4.vec.insert.i, ptr %0, align 4
  %18 = getelementptr inbounds nuw i8, ptr %0, i64 8
  %19 = fmul float %1, %.sroa.3.8.vec.extract.i
  %20 = fsub float %19, %11
  %21 = fadd float %.sroa.06.0.vec.extract.i, %20
  %22 = fmul float %1, %.sroa.3.12.vec.extract.i
  %23 = fadd float %22, %15
  %24 = fadd float %.sroa.06.4.vec.extract.i, %23
  %.sroa.011.0.vec.insert.i49 = insertelement <2 x float> poison, float %21, i64 0
  %.sroa.011.4.vec.insert.i50 = insertelement <2 x float> %.sroa.011.0.vec.insert.i49, float %24, i64 1
  store <2 x float> %.sroa.011.4.vec.insert.i50, ptr %18, align 4
  %25 = getelementptr inbounds nuw i8, ptr %0, i64 16
  %26 = fmul float %2, %.sroa.3.12.vec.extract.i
  %27 = fsub float %19, %26
  %28 = fadd float %.sroa.06.0.vec.extract.i, %27
  %29 = fmul float %2, %.sroa.3.8.vec.extract.i
  %30 = fadd float %22, %29
  %31 = fadd float %.sroa.06.4.vec.extract.i, %30
  %.sroa.011.0.vec.insert.i55 = insertelement <2 x float> poison, float %28, i64 0
  %.sroa.011.4.vec.insert.i56 = insertelement <2 x float> %.sroa.011.0.vec.insert.i55, float %31, i64 1
  store <2 x float> %.sroa.011.4.vec.insert.i56, ptr %25, align 4
  %32 = getelementptr inbounds nuw i8, ptr %0, i64 24
  %33 = fsub float %10, %26
  %34 = fadd float %.sroa.06.0.vec.extract.i, %33
  %35 = fadd float %14, %29
  %36 = fadd float %.sroa.06.4.vec.extract.i, %35
  %.sroa.011.0.vec.insert.i61 = insertelement <2 x float> poison, float %34, i64 0
  %.sroa.011.4.vec.insert.i62 = insertelement <2 x float> %.sroa.011.0.vec.insert.i61, float %36, i64 1
  store <2 x float> %.sroa.011.4.vec.insert.i62, ptr %32, align 4
  %37 = getelementptr inbounds nuw i8, ptr %0, i64 64
  %38 = fmul float %.sroa.3.8.vec.extract.i, 0.000000e+00
  %39 = fadd float %.sroa.3.12.vec.extract.i, %38
  %.sroa.010.0.vec.insert.i = insertelement <2 x float> poison, float %39, i64 0
  %40 = fmul float %.sroa.3.12.vec.extract.i, 0.000000e+00
  %41 = fneg float %.sroa.3.8.vec.extract.i
  %42 = fsub float %40, %.sroa.3.8.vec.extract.i
  %.sroa.010.4.vec.insert.i = insertelement <2 x float> %.sroa.010.0.vec.insert.i, float %42, i64 1
  store <2 x float> %.sroa.010.4.vec.insert.i, ptr %37, align 4
  %43 = getelementptr inbounds nuw i8, ptr %0, i64 72
  %44 = fsub float %.sroa.3.8.vec.extract.i, %40
  %.sroa.010.0.vec.insert.i65 = insertelement <2 x float> poison, float %44, i64 0
  %.sroa.010.4.vec.insert.i66 = insertelement <2 x float> %.sroa.010.0.vec.insert.i65, float %39, i64 1
  store <2 x float> %.sroa.010.4.vec.insert.i66, ptr %43, align 4
  %45 = getelementptr inbounds nuw i8, ptr %0, i64 80
  %46 = fsub float %38, %.sroa.3.12.vec.extract.i
  %.sroa.010.0.vec.insert.i69 = insertelement <2 x float> poison, float %46, i64 0
  %47 = fadd float %.sroa.3.8.vec.extract.i, %40
  %.sroa.010.4.vec.insert.i70 = insertelement <2 x float> %.sroa.010.0.vec.insert.i69, float %47, i64 1
  store <2 x float> %.sroa.010.4.vec.insert.i70, ptr %45, align 4
  %48 = getelementptr inbounds nuw i8, ptr %0, i64 88
  %49 = fsub float %41, %40
  %.sroa.010.0.vec.insert.i73 = insertelement <2 x float> poison, float %49, i64 0
  %.sroa.010.4.vec.insert.i74 = insertelement <2 x float> %.sroa.010.0.vec.insert.i73, float %46, i64 1
  store <2 x float> %.sroa.010.4.vec.insert.i74, ptr %48, align 4
  %50 = getelementptr inbounds nuw i8, ptr %0, i64 136
  store float 0.000000e+00, ptr %50, align 4, !tbaa !20
  %51 = getelementptr inbounds nuw i8, ptr %0, i64 128
  store <2 x float> %3, ptr %51, align 4
  ret void
}